; Function Attrs: mustprogress uwtable
define noundef ptr @_ZNK7rocksdb2DB13GetFileSystemEv(ptr noundef nonnull align 8 dereferenceable(8) %this) unnamed_addr #5 align 2 {
entry:
  %vtable = load ptr, ptr %this, align 8
  %vfn = getelementptr inbounds i8, ptr %vtable, i64 752
  %0 = load ptr, ptr %vfn, align 8
  %call = tail call noundef ptr %0(ptr noundef nonnull align 8 dereferenceable(8) %this)
  %call2 = tail call noundef nonnull align 8 dereferenceable(16) ptr @_ZNK7rocksdb3Env13GetFileSystemEv(ptr noundef nonnull align 8 dereferenceable(72) %call)
  %1 = load ptr, ptr %call2, align 8
  ret ptr %1
}